; Function Attrs: mustprogress nofree norecurse nosync nounwind memory(argmem: readwrite) uwtable
define hidden noundef i32 @_ZN3sls12bv_valuation11random_bitsER10random_gen(ptr noundef nonnull align 4 captures(none) dereferenceable(4) %0) local_unnamed_addr #11 align 2 {
  %.promoted = load i32, ptr %0, align 4, !tbaa !83
  br label %3

2:                                                ; preds = %3
  store i32 %6, ptr %0, align 4, !tbaa !83
  ret i32 %11

3:                                                ; preds = %1, %3
  %.07 = phi i32 [ 0, %1 ], [ %12, %3 ]
  %.056 = phi i32 [ 0, %1 ], [ %11, %3 ]
  %4 = phi i32 [ %.promoted, %1 ], [ %6, %3 ]
  %5 = mul i32 %4, 214013
  %6 = add i32 %5, 2531011
  %7 = lshr i32 %6, 16
  %8 = and i32 %7, 32767
  %9 = shl nuw nsw i32 %.07, 3
  %10 = shl i32 %8, %9
  %11 = xor i32 %10, %.056
  %12 = add nuw nsw i32 %.07, 1
  %exitcond.not = icmp eq i32 %12, 4
  br i1 %exitcond.not, label %2, label %3, !llvm.loop !89
}